; ModuleID = '41/540.c'
source_filename = "41/540.c"
target datalayout = "e-m:e-p270:32:32-p271:32:32-p272:64:64-i64:64-f80:128-n8:16:32:64-S128"
target triple = "x86_64-pc-linux-gnu"

@.str = private unnamed_addr constant [16 x i8] c"%d %d %d %d %d\0A\00", align 1

; Function Attrs: noinline nounwind uwtable
define dso_local i32 @main() #0 {
  %1 = alloca i32, align 4
  %2 = alloca i32, align 4
  %3 = alloca i32, align 4
  %4 = alloca i32, align 4
  %5 = alloca i32, align 4
  %6 = alloca i32, align 4
  store i32 0, i32* %1, align 4
  store i32 1, i32* %2, align 4
  br label %7

7:                                                ; preds = %117, %0
  %8 = load i32, i32* %2, align 4
  %9 = icmp sle i32 %8, 5
  br i1 %9, label %10, label %120

10:                                               ; preds = %7
  store i32 1, i32* %3, align 4
  br label %11

11:                                               ; preds = %113, %10
  %12 = load i32, i32* %3, align 4
  %13 = icmp sle i32 %12, 5
  br i1 %13, label %14, label %116

14:                                               ; preds = %11
  store i32 1, i32* %4, align 4
  br label %15

15:                                               ; preds = %109, %14
  %16 = load i32, i32* %4, align 4
  %17 = icmp sle i32 %16, 5
  br i1 %17, label %18, label %112

18:                                               ; preds = %15
  store i32 1, i32* %5, align 4
  br label %19

19:                                               ; preds = %105, %18
  %20 = load i32, i32* %5, align 4
  %21 = icmp sle i32 %20, 5
  br i1 %21, label %22, label %108

22:                                               ; preds = %19
  store i32 1, i32* %6, align 4
  br label %23

23:                                               ; preds = %101, %22
  %24 = load i32, i32* %6, align 4
  %25 = icmp sle i32 %24, 5
  br i1 %25, label %26, label %104

26:                                               ; preds = %23
  %27 = load i32, i32* %2, align 4
  %28 = icmp ne i32 %27, 1
  br i1 %28, label %29, label %100

29:                                               ; preds = %26
  %30 = load i32, i32* %3, align 4
  %31 = icmp eq i32 %30, 2
  br i1 %31, label %32, label %99

32:                                               ; preds = %29
  %33 = load i32, i32* %2, align 4
  %34 = icmp eq i32 %33, 5
  br i1 %34, label %35, label %98

35:                                               ; preds = %32
  %36 = load i32, i32* %5, align 4
  %37 = icmp ne i32 %36, 4
  br i1 %37, label %38, label %97

38:                                               ; preds = %35
  %39 = load i32, i32* %5, align 4
  %40 = icmp ne i32 %39, 1
  br i1 %40, label %41, label %97

41:                                               ; preds = %38
  %42 = load i32, i32* %6, align 4
  %43 = icmp ne i32 %42, 1
  br i1 %43, label %44, label %96

44:                                               ; preds = %41
  %45 = load i32, i32* %4, align 4
  %46 = icmp eq i32 %45, 1
  br i1 %46, label %47, label %95

47:                                               ; preds = %44
  %48 = load i32, i32* %2, align 4
  %49 = load i32, i32* %3, align 4
  %50 = icmp ne i32 %48, %49
  br i1 %50, label %51, label %94

51:                                               ; preds = %47
  %52 = load i32, i32* %2, align 4
  %53 = load i32, i32* %4, align 4
  %54 = icmp ne i32 %52, %53
  br i1 %54, label %55, label %94

55:                                               ; preds = %51
  %56 = load i32, i32* %2, align 4
  %57 = load i32, i32* %5, align 4
  %58 = icmp ne i32 %56, %57
  br i1 %58, label %59, label %94

59:                                               ; preds = %55
  %60 = load i32, i32* %2, align 4
  %61 = load i32, i32* %6, align 4
  %62 = icmp ne i32 %60, %61
  br i1 %62, label %63, label %94

63:                                               ; preds = %59
  %64 = load i32, i32* %3, align 4
  %65 = load i32, i32* %4, align 4
  %66 = icmp ne i32 %64, %65
  br i1 %66, label %67, label %94

67:                                               ; preds = %63
  %68 = load i32, i32* %3, align 4
  %69 = load i32, i32* %5, align 4
  %70 = icmp ne i32 %68, %69
  br i1 %70, label %71, label %94

71:                                               ; preds = %67
  %72 = load i32, i32* %3, align 4
  %73 = load i32, i32* %6, align 4
  %74 = icmp ne i32 %72, %73
  br i1 %74, label %75, label %94

75:                                               ; preds = %71
  %76 = load i32, i32* %4, align 4
  %77 = load i32, i32* %5, align 4
  %78 = icmp ne i32 %76, %77
  br i1 %78, label %79, label %94

79:                                               ; preds = %75
  %80 = load i32, i32* %4, align 4
  %81 = load i32, i32* %6, align 4
  %82 = icmp ne i32 %80, %81
  br i1 %82, label %83, label %94

83:                                               ; preds = %79
  %84 = load i32, i32* %5, align 4
  %85 = load i32, i32* %6, align 4
  %86 = icmp ne i32 %84, %85
  br i1 %86, label %87, label %94

87:                                               ; preds = %83
  %88 = load i32, i32* %2, align 4
  %89 = load i32, i32* %3, align 4
  %90 = load i32, i32* %4, align 4
  %91 = load i32, i32* %5, align 4
  %92 = load i32, i32* %6, align 4
  %93 = call i32 (i8*, ...) @printf(i8* getelementptr inbounds ([16 x i8], [16 x i8]* @.str, i64 0, i64 0), i32 %88, i32 %89, i32 %90, i32 %91, i32 %92)
  br label %94

94:                                               ; preds = %87, %83, %79, %75, %71, %67, %63, %59, %55, %51, %47
  br label %95

95:                                               ; preds = %94, %44
  br label %96

96:                                               ; preds = %95, %41
  br label %97

97:                                               ; preds = %96, %38, %35
  br label %98

98:                                               ; preds = %97, %32
  br label %99

99:                                               ; preds = %98, %29
  br label %100

100:                                              ; preds = %99, %26
  br label %101

101:                                              ; preds = %100
  %102 = load i32, i32* %6, align 4
  %103 = add nsw i32 %102, 1
  store i32 %103, i32* %6, align 4
  br label %23

104:                                              ; preds = %23
  br label %105

105:                                              ; preds = %104
  %106 = load i32, i32* %5, align 4
  %107 = add nsw i32 %106, 1
  store i32 %107, i32* %5, align 4
  br label %19

108:                                              ; preds = %19
  br label %109

109:                                              ; preds = %108
  %110 = load i32, i32* %4, align 4
  %111 = add nsw i32 %110, 1
  store i32 %111, i32* %4, align 4
  br label %15

112:                                              ; preds = %15
  br label %113

113:                                              ; preds = %112
  %114 = load i32, i32* %3, align 4
  %115 = add nsw i32 %114, 1
  store i32 %115, i32* %3, align 4
  br label %11

116:                                              ; preds = %11
  br label %117

117:                                              ; preds = %116
  %118 = load i32, i32* %2, align 4
  %119 = add nsw i32 %118, 1
  store i32 %119, i32* %2, align 4
  br label %7

120:                                              ; preds = %7
  %121 = load i32, i32* %1, align 4
  ret i32 %121
}

declare dso_local i32 @printf(i8*, ...) #1


!llvm.module.flags = !{!0}
!llvm.ident = !{!1}

!0 = !{i32 1, !"wchar_size", i32 4}
!1 = !{!"clang version 10.0.0-4ubuntu1 "}
